(dp1
S'output'
p2
S"<type 'exceptions.NameError'> global name 'json' is not defined"
p3
sS'layer'
p4
S'/Users/Joshua/Github Repos/Roadee/RoadeeProject/web2py/applications/Roadee/controllers/default.py'
p5
sS'code'
p6
S'# -*- coding: utf-8 -*-\n# this file is released under public domain and you can use without limitations\n\n#########################################################################\n## This is a sample controller\n## - index is the default action of any application\n## - user is required for authentication and authorization\n## - download is for downloading files uploaded in the db (does streaming)\n#########################################################################\n\ndef index():\n    """\n    example action using the internationalization operator T and flash\n    rendered by views/default/index.html or views/generic.html\n\n    if you need a simple wiki simply replace the two lines below with:\n    return auth.wiki()\n    """\n    response.flash = T("Hello World")\n    return dict(message=T(\'Welcome to web2py!\'))\n\ndef roadtrip():\n    return dict(message=T(\'Welcome to web2py!\'))\n\ndef user():\n    """\n    exposes:\n    http://..../[app]/default/user/login\n    http://..../[app]/default/user/logout\n    http://..../[app]/default/user/register\n    http://..../[app]/default/user/profile\n    http://..../[app]/default/user/retrieve_password\n    http://..../[app]/default/user/change_password\n    http://..../[app]/default/user/bulk_register\n    use @auth.requires_login()\n        @auth.requires_membership(\'group name\')\n        @auth.requires_permission(\'read\',\'table name\',record_id)\n    to decorate functions that need access control\n    also notice there is http://..../[app]/appadmin/manage/auth to allow administrator to manage users\n    """\n    return dict(form=auth())\n\n\n@cache.action()\ndef download():\n    """\n    allows downloading of uploaded files\n    http://..../[app]/default/download/[filename]\n    """\n    return response.download(request, db)\n\n\ndef call():\n    """\n    exposes services. for example:\n    http://..../[app]/default/call/jsonrpc\n    decorate with @services.jsonrpc the functions to expose\n    supports xml, json, xmlrpc, jsonrpc, amfrpc, rss, csv\n    """\n    return service()\n\ndef user_sign_up():\n    return dict()\n\ndef username_exists(username):\n    return len(db(db.auth_user.username == username).select())\n\ndef email_exists(email):\n    return len(db(db.auth_user.email == email).select())\n\ndef add_user():\n    if username_exists(request.vars.username):\n        return json.dumps({"msg" : "username_failure"})\n    elif email_exists(request.vars.email):\n        return json.dumps({"msg" : "email_failure"})\n    else:\n        db.auth_user.insert(\n                username = request.vars.username,\n                password = request.vars.password,\n                email = request.vars.email\n                )\n\n        return json.dumps({"msg" : "success"})\n\n\nresponse._vars=response._caller(add_user)\n'
p7
sS'snapshot'
p8
(dp9
sS'traceback'
p10
S'Traceback (most recent call last):\n  File "/Users/Joshua/Github Repos/Roadee/RoadeeProject/web2py/gluon/restricted.py", line 227, in restricted\n    exec ccode in environment\n  File "/Users/Joshua/Github Repos/Roadee/RoadeeProject/web2py/applications/Roadee/controllers/default.py", line 86, in <module>\n  File "/Users/Joshua/Github Repos/Roadee/RoadeeProject/web2py/gluon/globals.py", line 412, in <lambda>\n    self._caller = lambda f: f()\n  File "/Users/Joshua/Github Repos/Roadee/RoadeeProject/web2py/applications/Roadee/controllers/default.py", line 73, in add_user\n    return json.dumps({"msg" : "username_failure"})\nNameError: global name \'json\' is not defined\n'
p11
s.